target datalayout = "e-m:e-p270:32:32-p271:32:32-p272:64:64-i64:64-i128:128-f80:128-n8:16:32:64-S128"
target triple = "x86_64-unknown-linux-gnu"

%struct.x86_platform_ops = type { ptr, ptr, ptr, ptr, ptr, ptr, ptr, ptr, ptr, ptr, ptr, %struct.x86_legacy_features, ptr, ptr, ptr, %struct.x86_hyper_runtime, %struct.x86_guest }
%struct.x86_legacy_features = type { i32, i32, i32, i32, i32, %struct.x86_legacy_devices }
%struct.x86_legacy_devices = type { i32 }
%struct.x86_hyper_runtime = type { ptr, ptr, ptr, ptr }
%struct.x86_guest = type { ptr, ptr, ptr, ptr }
%struct.boot_params = type { %struct.screen_info, %struct.apm_bios_info, [4 x i8], i64, %struct.ist_info, i64, [8 x i8], [16 x i8], [16 x i8], %struct.sys_desc_table, %struct.olpc_ofw_header, i32, i32, i32, [112 x i8], i32, %struct.edid_info, %struct.efi_info, i32, i32, i8, i8, i8, i8, i8, [2 x i8], i8, [1 x i8], %struct.setup_header, [36 x i8], [16 x i32], [128 x %struct.boot_e820_entry], [48 x i8], [6 x %struct.edd_info], [276 x i8] }
%struct.screen_info = type <{ i8, i8, i16, i16, i8, i8, i8, i8, i16, i16, i8, i8, i16, i16, i16, i16, i32, i32, i16, i16, i16, i8, i8, i8, i8, i8, i8, i8, i8, i16, i16, i16, i16, i32, i32, [2 x i8] }>
%struct.apm_bios_info = type { i16, i16, i32, i16, i16, i16, i16, i16, i16 }
%struct.ist_info = type { i32, i32, i32, i32 }
%struct.sys_desc_table = type { i16, [14 x i8] }
%struct.olpc_ofw_header = type { i32, i32, i32, i32 }
%struct.edid_info = type { [128 x i8] }
%struct.efi_info = type { i32, i32, i32, i32, i32, i32, i32, i32 }
%struct.setup_header = type <{ i8, i16, i32, i16, i16, i16, i16, i16, i32, i16, i32, i16, i16, i8, i8, i16, i32, i32, i32, i32, i16, i8, i8, i32, i32, i32, i8, i8, i16, i32, i32, i64, i32, i32, i64, i64, i32, i32, i32 }>
%struct.boot_e820_entry = type <{ i64, i64, i32 }>
%struct.edd_info = type { i8, i8, i16, i16, i8, i8, %struct.edd_device_params }
%struct.edd_device_params = type <{ i16, i16, i32, i32, i32, i64, i16, i32, i16, i8, i8, i16, [4 x i8], [8 x i8], %union.anon, %union.anon.5, i8, i8 }>
%union.anon = type { %struct.anon.1 }
%struct.anon.1 = type { i64 }
%union.anon.5 = type { %struct.anon.6 }
%struct.anon.6 = type { i8, i8, i16, i32, i64 }

@x86_platform = external dso_local local_unnamed_addr global %struct.x86_platform_ops, align 8
@boot_params = external dso_local local_unnamed_addr global %struct.boot_params, align 1

; Function Attrs: cold fn_ret_thunk_extern nounwind null_pointer_is_valid optsize
define dso_local void @x86_early_init_platform_quirks() local_unnamed_addr #0 section ".init.text" align 16 {
  store i32 2, ptr getelementptr inbounds (%struct.x86_platform_ops, ptr @x86_platform, i64 0, i32 11), align 8
  store i32 1, ptr getelementptr inbounds (%struct.x86_platform_ops, ptr @x86_platform, i64 0, i32 11, i32 1), align 4
  store i32 1, ptr getelementptr inbounds (%struct.x86_platform_ops, ptr @x86_platform, i64 0, i32 11, i32 2), align 8
  store i32 0, ptr getelementptr inbounds (%struct.x86_platform_ops, ptr @x86_platform, i64 0, i32 11, i32 4), align 8
  store i32 1, ptr getelementptr inbounds (%struct.x86_platform_ops, ptr @x86_platform, i64 0, i32 11, i32 5), align 4
  %1 = load i32, ptr getelementptr inbounds (%struct.boot_params, ptr @boot_params, i64 0, i32 28, i32 30), align 1
  switch i32 %1, label %5 [
    i32 0, label %2
    i32 2, label %3
    i32 3, label %4
    i32 4, label %4
  ]

2:                                                ; preds = %0
  store i32 1, ptr getelementptr inbounds (%struct.x86_platform_ops, ptr @x86_platform, i64 0, i32 11, i32 4), align 8
  br label %5

3:                                                ; preds = %0
  store i32 0, ptr getelementptr inbounds (%struct.x86_platform_ops, ptr @x86_platform, i64 0, i32 11, i32 5), align 4
  store i32 0, ptr getelementptr inbounds (%struct.x86_platform_ops, ptr @x86_platform, i64 0, i32 11, i32 1), align 4
  br label %5

4:                                                ; preds = %0, %0
  store i32 0, ptr getelementptr inbounds (%struct.x86_platform_ops, ptr @x86_platform, i64 0, i32 11, i32 5), align 4
  store i32 0, ptr getelementptr inbounds (%struct.x86_platform_ops, ptr @x86_platform, i64 0, i32 11, i32 1), align 4
  store i32 0, ptr getelementptr inbounds (%struct.x86_platform_ops, ptr @x86_platform, i64 0, i32 11), align 8
  br label %5

5:                                                ; preds = %4, %3, %2, %0
  %6 = load ptr, ptr getelementptr inbounds (%struct.x86_platform_ops, ptr @x86_platform, i64 0, i32 12), align 8
  %7 = icmp eq ptr %6, null
  br i1 %7, label %9, label %8

8:                                                ; preds = %5
  tail call void %6() #2
  br label %9

9:                                                ; preds = %8, %5
  ret void
}

; Function Attrs: cold fn_ret_thunk_extern mustprogress nofree norecurse nosync nounwind null_pointer_is_valid optsize willreturn memory(read, argmem: none, inaccessiblemem: none)
define dso_local zeroext i1 @x86_pnpbios_disabled() local_unnamed_addr #1 section ".init.text" align 16 {
  %1 = load i32, ptr getelementptr inbounds (%struct.x86_platform_ops, ptr @x86_platform, i64 0, i32 11, i32 5), align 4
  %2 = icmp eq i32 %1, 0
  ret i1 %2
}


!llvm.module.flags = !{!0, !1, !2, !3, !4}

!0 = !{i32 1, !"wchar_size", i32 2}
!1 = !{i32 8, !"cf-protection-branch", i32 1}
!2 = !{i32 4, !"function_return_thunk_extern", i32 1}
!3 = !{i32 4, !"indirect_branch_cs_prefix", i32 1}
!4 = !{i32 4, !"SkipRaxSetup", i32 1}
